target datalayout = "e-m:e-p270:32:32-p271:32:32-p272:64:64-i64:64-i128:128-f80:128-n8:16:32:64-S128"
target triple = "x86_64-unknown-linux-gnu"

; Function Attrs: mustprogress nounwind uwtable
define noundef zeroext i1 @_ZN18OpenImageIO_v2_6_010wrap_blackERiii(ptr noundef nonnull align 4 dereferenceable(4) %coord, i32 noundef %origin, i32 noundef %width) #4 {
entry:
  %coord.addr = alloca ptr, align 8
  %origin.addr = alloca i32, align 4
  %width.addr = alloca i32, align 4
  store ptr %coord, ptr %coord.addr, align 8
  store i32 %origin, ptr %origin.addr, align 4
  store i32 %width, ptr %width.addr, align 4
  %0 = load ptr, ptr %coord.addr, align 8
  %1 = load i32, ptr %0, align 4
  %2 = load i32, ptr %origin.addr, align 4
  %cmp = icmp sge i32 %1, %2
  br i1 %cmp, label %land.rhs, label %land.end

land.rhs:                                         ; preds = %entry
  %3 = load ptr, ptr %coord.addr, align 8
  %4 = load i32, ptr %3, align 4
  %5 = load i32, ptr %width.addr, align 4
  %6 = load i32, ptr %origin.addr, align 4
  %add = add nsw i32 %5, %6
  %cmp1 = icmp slt i32 %4, %add
  br label %land.end

land.end:                                         ; preds = %land.rhs, %entry
  %7 = phi i1 [ false, %entry ], [ %cmp1, %land.rhs ]
  ret i1 %7
}