; Function Attrs: mustprogress nofree norecurse nosync nounwind willreturn memory(argmem: read) uwtable
define noundef zeroext i1 @_ZN18OpenImageIO_v2_6_010wrap_blackERiii(ptr nocapture noundef nonnull readonly align 4 dereferenceable(4) %coord, i32 noundef %origin, i32 noundef %width) local_unnamed_addr #19 {
entry:
  %0 = load i32, ptr %coord, align 4
  %cmp.not = icmp sge i32 %0, %origin
  %add = add nsw i32 %width, %origin
  %cmp1 = icmp slt i32 %0, %add
  %1 = select i1 %cmp.not, i1 %cmp1, i1 false
  ret i1 %1
}